; Function Attrs: mustprogress nounwind uwtable
define hidden void @_ZN11klassVtable39initialize_vtable_and_check_constraintsEP10JavaThread(ptr nocapture noundef nonnull readonly align 8 dereferenceable(16) %0, ptr noundef %1) local_unnamed_addr #1 align 2 {
  %3 = getelementptr inbounds i8, ptr %1, i64 800
  %4 = load ptr, ptr %3, align 8
  %5 = getelementptr inbounds i8, ptr %4, i64 24
  %6 = load ptr, ptr %5, align 8
  %7 = getelementptr inbounds i8, ptr %4, i64 32
  %8 = load ptr, ptr %7, align 8
  %9 = getelementptr inbounds i8, ptr %4, i64 40
  %10 = load ptr, ptr %9, align 8
  %11 = getelementptr inbounds i8, ptr %4, i64 8
  %12 = load i64, ptr %11, align 8
  %13 = tail call noundef ptr @_Z23resource_allocate_bytesmN17AllocFailStrategy13AllocFailEnumE(i64 noundef 24, i32 noundef 0) #14
  %14 = getelementptr inbounds i8, ptr %0, i64 12
  %15 = load i32, ptr %14, align 4
  %16 = tail call noundef ptr @_ZN30GrowableArrayResourceAllocator8allocateEii(i32 noundef %15, i32 noundef 8) #14
  store i32 %15, ptr %13, align 4
  %17 = getelementptr inbounds i8, ptr %13, i64 4
  store i32 %15, ptr %17, align 4
  %18 = getelementptr inbounds i8, ptr %13, i64 8
  store ptr %16, ptr %18, align 8
  %19 = icmp sgt i32 %15, 0
  br i1 %19, label %.lr.ph.preheader.i.i, label %_ZN13GrowableArrayIP13InstanceKlassEC2EiiRKS1_.exit

.lr.ph.preheader.i.i:                             ; preds = %2
  %wide.trip.count.i.i = zext nneg i32 %15 to i64
  %20 = shl nuw nsw i64 %wide.trip.count.i.i, 3
  tail call void @llvm.memset.p0.i64(ptr align 8 %16, i8 0, i64 %20, i1 false)
  br label %_ZN13GrowableArrayIP13InstanceKlassEC2EiiRKS1_.exit

_ZN13GrowableArrayIP13InstanceKlassEC2EiiRKS1_.exit: ; preds = %.lr.ph.preheader.i.i, %2
  %21 = getelementptr inbounds i8, ptr %13, i64 16
  store i64 0, ptr %21, align 8
  tail call void @_ZN11klassVtable17initialize_vtableEP13GrowableArrayIP13InstanceKlassE(ptr noundef nonnull align 8 dereferenceable(16) %0, ptr noundef nonnull %13)
  tail call void @_ZN11klassVtable17check_constraintsEP13GrowableArrayIP13InstanceKlassEP10JavaThread(ptr noundef nonnull align 8 dereferenceable(16) %0, ptr noundef nonnull %13, ptr noundef nonnull %1)
  %22 = load ptr, ptr %6, align 8
  %.not.i.i.i.i = icmp eq ptr %22, null
  br i1 %.not.i.i.i.i, label %24, label %23

23:                                               ; preds = %_ZN13GrowableArrayIP13InstanceKlassEC2EiiRKS1_.exit
  tail call void @_ZN5Arena17set_size_in_bytesEm(ptr noundef nonnull align 8 dereferenceable(48) %4, i64 noundef %12) #14
  tail call void @_ZN5Chunk9next_chopEPS_(ptr noundef nonnull %6) #14
  br label %24

24:                                               ; preds = %23, %_ZN13GrowableArrayIP13InstanceKlassEC2EiiRKS1_.exit
  %25 = load ptr, ptr %7, align 8
  %.not8.i.i.i.i = icmp eq ptr %25, %8
  br i1 %.not8.i.i.i.i, label %_ZN12ResourceMarkD2Ev.exit, label %26

26:                                               ; preds = %24
  store ptr %6, ptr %5, align 8
  store ptr %8, ptr %7, align 8
  store ptr %10, ptr %9, align 8
  br label %_ZN12ResourceMarkD2Ev.exit

_ZN12ResourceMarkD2Ev.exit:                       ; preds = %24, %26
  ret void
}